target datalayout = "e-m:e-p270:32:32-p271:32:32-p272:64:64-i64:64-i128:128-f80:128-n8:16:32:64-S128"
target triple = "x86_64-pc-linux-gnu"

@.str.5 = private unnamed_addr constant [8 x i8] c"column.\00", align 1
@.str.6 = private unnamed_addr constant [3 x i8] c"ui\00", align 1
@.str.14 = private unnamed_addr constant [26 x i8] c"invalid column.%s mode %s\00", align 1

; Function Attrs: inlinehint nounwind uwtable
define internal i32 @const_error() #5 {
  ret i32 -1
}

; Function Attrs: nounwind uwtable
define internal i32 @column_config(ptr noundef %0, ptr noundef %1, ptr noundef %2, ptr noundef %3) #0 {
  %5 = alloca i32, align 4
  %6 = alloca ptr, align 8
  %7 = alloca ptr, align 8
  %8 = alloca ptr, align 8
  %9 = alloca ptr, align 8
  store ptr %0, ptr %6, align 8, !tbaa !23
  store ptr %1, ptr %7, align 8, !tbaa !23
  store ptr %2, ptr %8, align 8, !tbaa !23
  store ptr %3, ptr %9, align 8, !tbaa !41
  %10 = load ptr, ptr %7, align 8, !tbaa !23
  %11 = icmp ne ptr %10, null
  br i1 %11, label %16, label %12

12:                                               ; preds = %4
  %13 = load ptr, ptr %6, align 8, !tbaa !23
  %14 = call i32 @config_error_nonbool(ptr noundef %13)
  %15 = call i32 @const_error()
  store i32 %15, ptr %5, align 4
  br label %27

16:                                               ; preds = %4
  %17 = load ptr, ptr %9, align 8, !tbaa !41
  %18 = load ptr, ptr %7, align 8, !tbaa !23
  %19 = call i32 @parse_config(ptr noundef %17, ptr noundef %18)
  %20 = icmp ne i32 %19, 0
  br i1 %20, label %21, label %26

21:                                               ; preds = %16
  %22 = load ptr, ptr %8, align 8, !tbaa !23
  %23 = load ptr, ptr %7, align 8, !tbaa !23
  %24 = call i32 (ptr, ...) @error(ptr noundef @.str.14, ptr noundef %22, ptr noundef %23)
  %25 = call i32 @const_error()
  store i32 %25, ptr %5, align 4
  br label %27

26:                                               ; preds = %16
  store i32 0, ptr %5, align 4
  br label %27

27:                                               ; preds = %26, %21, %12
  %28 = load i32, ptr %5, align 4
  ret i32 %28
}

; Function Attrs: inlinehint nounwind uwtable
define internal zeroext i1 @skip_prefix(ptr noundef %0, ptr noundef %1, ptr noundef %2) #5 {
  %4 = alloca i1, align 1
  %5 = alloca ptr, align 8
  %6 = alloca ptr, align 8
  %7 = alloca ptr, align 8
  store ptr %0, ptr %5, align 8, !tbaa !23
  store ptr %1, ptr %6, align 8, !tbaa !23
  store ptr %2, ptr %7, align 8, !tbaa !42
  br label %8

8:                                                ; preds = %16, %3
  %9 = load ptr, ptr %6, align 8, !tbaa !23
  %10 = load i8, ptr %9, align 1, !tbaa !44
  %11 = icmp ne i8 %10, 0
  br i1 %11, label %15, label %12

12:                                               ; preds = %8
  %13 = load ptr, ptr %5, align 8, !tbaa !23
  %14 = load ptr, ptr %7, align 8, !tbaa !42
  store ptr %13, ptr %14, align 8, !tbaa !23
  store i1 true, ptr %4, align 1
  br label %27

15:                                               ; preds = %8
  br label %16

16:                                               ; preds = %15
  %17 = load ptr, ptr %5, align 8, !tbaa !23
  %18 = getelementptr inbounds nuw i8, ptr %17, i32 1
  store ptr %18, ptr %5, align 8, !tbaa !23
  %19 = load i8, ptr %17, align 1, !tbaa !44
  %20 = sext i8 %19 to i32
  %21 = load ptr, ptr %6, align 8, !tbaa !23
  %22 = getelementptr inbounds nuw i8, ptr %21, i32 1
  store ptr %22, ptr %6, align 8, !tbaa !23
  %23 = load i8, ptr %21, align 1, !tbaa !44
  %24 = sext i8 %23 to i32
  %25 = icmp eq i32 %20, %24
  br i1 %25, label %8, label %26, !llvm.loop !45

26:                                               ; preds = %16
  store i1 false, ptr %4, align 1
  br label %27

27:                                               ; preds = %26, %12
  %28 = load i1, ptr %4, align 1
  ret i1 %28
}

; Function Attrs: nounwind uwtable
define dso_local i32 @git_column_config(ptr noundef %0, ptr noundef %1, ptr noundef %2, ptr noundef %3) #0 {
  %5 = alloca i32, align 4
  %6 = alloca ptr, align 8
  %7 = alloca ptr, align 8
  %8 = alloca ptr, align 8
  %9 = alloca ptr, align 8
  %10 = alloca ptr, align 8
  %11 = alloca i32, align 4
  store ptr %0, ptr %6, align 8, !tbaa !23
  store ptr %1, ptr %7, align 8, !tbaa !23
  store ptr %2, ptr %8, align 8, !tbaa !23
  store ptr %3, ptr %9, align 8, !tbaa !41
  call void @llvm.lifetime.start.p0(i64 8, ptr %10) #9
  %12 = load ptr, ptr %6, align 8, !tbaa !23
  %13 = call zeroext i1 @skip_prefix(ptr noundef %12, ptr noundef @.str.5, ptr noundef %10)
  br i1 %13, label %15, label %14

14:                                               ; preds = %4
  store i32 0, ptr %5, align 4
  store i32 1, ptr %11, align 4
  br label %39

15:                                               ; preds = %4
  %16 = load ptr, ptr %10, align 8, !tbaa !23
  %17 = call i32 @strcmp(ptr noundef %16, ptr noundef @.str.6) #11
  %18 = icmp ne i32 %17, 0
  br i1 %18, label %24, label %19

19:                                               ; preds = %15
  %20 = load ptr, ptr %6, align 8, !tbaa !23
  %21 = load ptr, ptr %7, align 8, !tbaa !23
  %22 = load ptr, ptr %9, align 8, !tbaa !41
  %23 = call i32 @column_config(ptr noundef %20, ptr noundef %21, ptr noundef @.str.6, ptr noundef %22)
  store i32 %23, ptr %5, align 4
  store i32 1, ptr %11, align 4
  br label %39

24:                                               ; preds = %15
  %25 = load ptr, ptr %8, align 8, !tbaa !23
  %26 = icmp ne ptr %25, null
  br i1 %26, label %27, label %38

27:                                               ; preds = %24
  %28 = load ptr, ptr %10, align 8, !tbaa !23
  %29 = load ptr, ptr %8, align 8, !tbaa !23
  %30 = call i32 @strcmp(ptr noundef %28, ptr noundef %29) #11
  %31 = icmp ne i32 %30, 0
  br i1 %31, label %38, label %32

32:                                               ; preds = %27
  %33 = load ptr, ptr %6, align 8, !tbaa !23
  %34 = load ptr, ptr %7, align 8, !tbaa !23
  %35 = load ptr, ptr %10, align 8, !tbaa !23
  %36 = load ptr, ptr %9, align 8, !tbaa !41
  %37 = call i32 @column_config(ptr noundef %33, ptr noundef %34, ptr noundef %35, ptr noundef %36)
  store i32 %37, ptr %5, align 4
  store i32 1, ptr %11, align 4
  br label %39

38:                                               ; preds = %27, %24
  store i32 0, ptr %5, align 4
  store i32 1, ptr %11, align 4
  br label %39

39:                                               ; preds = %38, %32, %19, %14
  call void @llvm.lifetime.end.p0(i64 8, ptr %10) #9
  %40 = load i32, ptr %5, align 4
  ret i32 %40
}