; Function Attrs: nounwind uwtable
define dso_local range(i32 -1, 1) i32 @git_column_config(ptr noundef %0, ptr noundef %1, ptr noundef readonly %2, ptr noundef captures(none) %3) local_unnamed_addr #0 {
  %scevgep.i = getelementptr i8, ptr %0, i64 7
  br label %5

5:                                                ; preds = %7, %4
  %.07.i = phi ptr [ %0, %4 ], [ %8, %7 ]
  %.06.idx.i = phi i64 [ 0, %4 ], [ %.06.add.i, %7 ]
  %.06.ptr.i = getelementptr inbounds nuw i8, ptr @.str.5, i64 %.06.idx.i
  %6 = load i8, ptr %.06.ptr.i, align 1, !tbaa !31
  %exitcond.i = icmp eq i64 %.06.idx.i, 7
  br i1 %exitcond.i, label %skip_prefix.exit, label %7

7:                                                ; preds = %5
  %8 = getelementptr inbounds nuw i8, ptr %.07.i, i64 1
  %9 = load i8, ptr %.07.i, align 1, !tbaa !31
  %.06.add.i = add nuw nsw i64 %.06.idx.i, 1
  %10 = icmp eq i8 %9, %6
  br i1 %10, label %5, label %skip_prefix.exit, !llvm.loop !32

skip_prefix.exit:                                 ; preds = %5, %7
  %.not.i = icmp eq i8 %6, 0
  br i1 %.not.i, label %sub_0, label %column_config.exit

sub_0:                                            ; preds = %skip_prefix.exit
  %11 = load i8, ptr %scevgep.i, align 1
  %.not18 = icmp eq i8 %11, 117
  br i1 %.not18, label %sub_1, label %.tail.thread

sub_1:                                            ; preds = %sub_0
  %12 = getelementptr i8, ptr %0, i64 8
  %13 = load i8, ptr %12, align 1
  %.not19 = icmp eq i8 %13, 105
  br i1 %.not19, label %.tail, label %.tail.thread

.tail:                                            ; preds = %sub_1
  %14 = getelementptr i8, ptr %0, i64 9
  %15 = load i8, ptr %14, align 1
  %16 = icmp eq i8 %15, 0
  br i1 %16, label %17, label %.tail.thread

17:                                               ; preds = %.tail
  %.not.i12 = icmp eq ptr %1, null
  br i1 %.not.i12, label %18, label %20

18:                                               ; preds = %17
  %19 = tail call i32 @config_error_nonbool(ptr noundef nonnull %0) #10
  br label %column_config.exit

20:                                               ; preds = %17
  %21 = tail call fastcc i32 @parse_config(ptr noundef %3, ptr noundef %1)
  %.not7.i = icmp eq i32 %21, 0
  br i1 %.not7.i, label %column_config.exit, label %22

22:                                               ; preds = %20
  %23 = tail call i32 (ptr, ...) @error(ptr noundef nonnull @.str.14, ptr noundef nonnull @.str.6, ptr noundef nonnull %1) #10
  br label %column_config.exit

.tail.thread:                                     ; preds = %sub_1, %sub_0, %.tail
  %.not10 = icmp eq ptr %2, null
  br i1 %.not10, label %column_config.exit, label %24

24:                                               ; preds = %.tail.thread
  %25 = tail call i32 @strcmp(ptr noundef nonnull dereferenceable(1) %scevgep.i, ptr noundef nonnull dereferenceable(1) %2) #11
  %.not11 = icmp eq i32 %25, 0
  br i1 %.not11, label %26, label %column_config.exit

26:                                               ; preds = %24
  %.not.i13 = icmp eq ptr %1, null
  br i1 %.not.i13, label %27, label %29

27:                                               ; preds = %26
  %28 = tail call i32 @config_error_nonbool(ptr noundef nonnull %0) #10
  br label %column_config.exit

29:                                               ; preds = %26
  %30 = tail call fastcc i32 @parse_config(ptr noundef %3, ptr noundef %1)
  %.not7.i14 = icmp eq i32 %30, 0
  br i1 %.not7.i14, label %column_config.exit, label %31

31:                                               ; preds = %29
  %32 = tail call i32 (ptr, ...) @error(ptr noundef nonnull @.str.14, ptr noundef nonnull %scevgep.i, ptr noundef nonnull %1) #10
  br label %column_config.exit

column_config.exit:                               ; preds = %31, %29, %27, %22, %20, %18, %.tail.thread, %24, %skip_prefix.exit
  %.0 = phi i32 [ 0, %skip_prefix.exit ], [ 0, %24 ], [ 0, %.tail.thread ], [ -1, %22 ], [ -1, %18 ], [ 0, %20 ], [ -1, %31 ], [ -1, %27 ], [ 0, %29 ]
  ret i32 %.0
}